target datalayout = "e-m:e-p270:32:32-p271:32:32-p272:64:64-i64:64-i128:128-f80:128-n8:16:32:64-S128"
target triple = "x86_64-pc-linux-gnu"

%struct.expert_field = type { i32, i32 }
%struct._packet_info = type { ptr, ptr, i32, i32, %struct.nstime_t, %struct.nstime_t, %struct.nstime_t, i8, ptr, ptr, ptr, ptr, %struct._address, %struct._address, %struct._address, %struct._address, %struct._address, %struct._address, i32, ptr, i8, [3 x i8], %struct.anon, i32, i32, i32, i32, ptr, i8, ptr, ptr, i16, i16, i32, i32, i16, i32, i32, ptr, ptr, ptr, i8, i8, i16, i16, i16, i32, i16, i16, ptr, ptr, ptr, ptr, ptr, i32, i32 }
%struct.nstime_t = type { i64, i32 }
%struct._address = type { i32, i32, ptr, ptr }
%struct.anon = type { i8, [3 x i8] }
%struct.asdu_parms = type { i32, i32, i32 }

@iec60870_asdu_handle = internal global ptr null, align 8
@hf_iec60870_101_frame = internal global i32 0, align 4
@hf_iec60870_101_length = internal global i32 0, align 4
@hf_iec60870_101_num_user_octets = internal global i32 0, align 4
@hf_iec60870_101_ctrlfield = internal global i32 0, align 4
@hf_iec60870_101_ctrl_prm = internal global i32 0, align 4
@hf_iec60870_101_ctrl_fcb = internal global i32 0, align 4
@hf_iec60870_101_ctrl_fcv = internal global i32 0, align 4
@hf_iec60870_101_ctrl_dfc = internal global i32 0, align 4
@hf_iec60870_101_ctrl_func_pri_to_sec = internal global i32 0, align 4
@hf_iec60870_101_ctrl_func_sec_to_pri = internal global i32 0, align 4
@hf_iec60870_101_linkaddr = internal global i32 0, align 4
@hf_iec60870_101_checksum = internal global i32 0, align 4
@hf_iec60870_101_stopchar = internal global i32 0, align 4
@ett_iec60870_101 = internal global i32 0, align 4
@ett_iec60870_101_ctrlfield = internal global i32 0, align 4
@ei_iec101_frame_mismatch = internal global %struct.expert_field zeroinitializer, align 4
@ei_iec101_length_mismatch = internal global %struct.expert_field zeroinitializer, align 4
@ei_iec101_stopchar_invalid = internal global %struct.expert_field zeroinitializer, align 4
@.str.365 = private unnamed_addr constant [16 x i8] c"IEC 60870-5-101\00", align 1
@proto_iec60870_101 = internal global i32 0, align 4
@global_iec60870_link_addr_len = internal global i32 1, align 4
@global_iec60870_cot_len = internal global i32 1, align 4
@global_iec60870_asdu_addr_len = internal global i32 1, align 4
@global_iec60870_ioa_len = internal global i32 2, align 4
@.str.839 = private unnamed_addr constant [13 x i8] c"Continuation\00", align 1
@.str.840 = private unnamed_addr constant [3 x i8] c", \00", align 1
@.str.841 = private unnamed_addr constant [9 x i8] c"Pri->Sec\00", align 1
@.str.842 = private unnamed_addr constant [9 x i8] c"Sec->Pri\00", align 1
@.str.843 = private unnamed_addr constant [18 x i8] c"Link Address: %d \00", align 1

; Function Attrs: null_pointer_is_valid sspstrong uwtable
define internal i32 @dissect_iec60870_101(ptr noundef %0, ptr noundef %1, ptr noundef %2, ptr noundef %3) #0 {
  %5 = alloca i32, align 4
  %6 = alloca ptr, align 8
  %7 = alloca ptr, align 8
  %8 = alloca ptr, align 8
  %9 = alloca ptr, align 8
  %10 = alloca ptr, align 8
  %11 = alloca ptr, align 8
  %12 = alloca ptr, align 8
  %13 = alloca ptr, align 8
  %14 = alloca ptr, align 8
  %15 = alloca i8, align 1
  %16 = alloca i32, align 4
  %17 = alloca i32, align 4
  %18 = alloca i32, align 4
  %19 = alloca i32, align 4
  %20 = alloca i32, align 4
  %21 = alloca %struct.asdu_parms, align 4
  %22 = alloca i32, align 4
  store ptr %0, ptr %6, align 8
  store ptr %1, ptr %7, align 8
  store ptr %2, ptr %8, align 8
  store ptr %3, ptr %9, align 8
  call void @llvm.lifetime.start.p0(i64 8, ptr %10) #8
  call void @llvm.lifetime.start.p0(i64 8, ptr %11) #8
  call void @llvm.lifetime.start.p0(i64 8, ptr %12) #8
  call void @llvm.lifetime.start.p0(i64 8, ptr %13) #8
  call void @llvm.lifetime.start.p0(i64 8, ptr %14) #8
  call void @llvm.lifetime.start.p0(i64 1, ptr %15) #8
  call void @llvm.lifetime.start.p0(i64 4, ptr %16) #8
  call void @llvm.lifetime.start.p0(i64 4, ptr %17) #8
  call void @llvm.lifetime.start.p0(i64 4, ptr %18) #8
  call void @llvm.lifetime.start.p0(i64 4, ptr %19) #8
  call void @llvm.lifetime.start.p0(i64 4, ptr %20) #8
  store i32 0, ptr %20, align 4
  call void @llvm.lifetime.start.p0(i64 12, ptr %21) #8
  %23 = load ptr, ptr %7, align 8
  %24 = getelementptr inbounds nuw %struct._packet_info, ptr %23, i32 0, i32 1
  %25 = load ptr, ptr %24, align 8
  call void @col_set_str(ptr noundef %25, i32 noundef 35, ptr noundef @.str.365)
  %26 = load ptr, ptr %7, align 8
  %27 = getelementptr inbounds nuw %struct._packet_info, ptr %26, i32 0, i32 1
  %28 = load ptr, ptr %27, align 8
  call void @col_clear(ptr noundef %28, i32 noundef 25)
  %29 = load ptr, ptr %8, align 8
  %30 = load i32, ptr @proto_iec60870_101, align 4
  %31 = load ptr, ptr %6, align 8
  %32 = call ptr @proto_tree_add_item(ptr noundef %29, i32 noundef %30, ptr noundef %31, i32 noundef 0, i32 noundef -1, i32 noundef 0)
  store ptr %32, ptr %10, align 8
  %33 = load ptr, ptr %10, align 8
  %34 = load i32, ptr @ett_iec60870_101, align 4
  %35 = call ptr @proto_item_add_subtree(ptr noundef %33, i32 noundef %34)
  store ptr %35, ptr %13, align 8
  %36 = load ptr, ptr %13, align 8
  %37 = load i32, ptr @hf_iec60870_101_frame, align 4
  %38 = load ptr, ptr %6, align 8
  %39 = load i32, ptr %20, align 4
  %40 = call ptr @proto_tree_add_item_ret_uint(ptr noundef %36, i32 noundef %37, ptr noundef %38, i32 noundef %39, i32 noundef 1, i32 noundef -2147483648, ptr noundef %16)
  %41 = load i32, ptr %20, align 4
  %42 = add i32 %41, 1
  store i32 %42, ptr %20, align 4
  %43 = load i32, ptr %16, align 4
  %44 = icmp eq i32 %43, 229
  br i1 %44, label %45, label %47

45:                                               ; preds = %4
  %46 = load i32, ptr %20, align 4
  store i32 %46, ptr %5, align 4
  store i32 1, ptr %22, align 4
  br label %224

47:                                               ; preds = %4
  %48 = load i32, ptr %16, align 4
  %49 = icmp eq i32 %48, 104
  br i1 %49, label %50, label %102

50:                                               ; preds = %47
  %51 = load ptr, ptr %13, align 8
  %52 = load i32, ptr @hf_iec60870_101_length, align 4
  %53 = load ptr, ptr %6, align 8
  %54 = load i32, ptr %20, align 4
  %55 = call ptr @proto_tree_add_item(ptr noundef %51, i32 noundef %52, ptr noundef %53, i32 noundef %54, i32 noundef 1, i32 noundef -2147483648)
  %56 = load ptr, ptr %13, align 8
  %57 = load i32, ptr @hf_iec60870_101_num_user_octets, align 4
  %58 = load ptr, ptr %6, align 8
  %59 = load i32, ptr %20, align 4
  %60 = add i32 %59, 1
  %61 = call ptr @proto_tree_add_item_ret_uint(ptr noundef %56, i32 noundef %57, ptr noundef %58, i32 noundef %60, i32 noundef 1, i32 noundef -2147483648, ptr noundef %18)
  store ptr %61, ptr %12, align 8
  %62 = load i32, ptr %18, align 4
  %63 = load ptr, ptr %6, align 8
  %64 = load i32, ptr %20, align 4
  %65 = call zeroext i8 @tvb_get_uint8(ptr noundef %63, i32 noundef %64)
  %66 = zext i8 %65 to i32
  %67 = icmp ne i32 %62, %66
  br i1 %67, label %68, label %77

68:                                               ; preds = %50
  %69 = load ptr, ptr %7, align 8
  %70 = load ptr, ptr %12, align 8
  %71 = call ptr @expert_add_info(ptr noundef %69, ptr noundef %70, ptr noundef @ei_iec101_length_mismatch)
  %72 = load ptr, ptr %7, align 8
  %73 = getelementptr inbounds nuw %struct._packet_info, ptr %72, i32 0, i32 1
  %74 = load ptr, ptr %73, align 8
  call void @col_set_str(ptr noundef %74, i32 noundef 25, ptr noundef @.str.839)
  %75 = load ptr, ptr %6, align 8
  %76 = call i32 @tvb_captured_length(ptr noundef %75)
  store i32 %76, ptr %5, align 4
  store i32 1, ptr %22, align 4
  br label %224

77:                                               ; preds = %50
  %78 = load i32, ptr @global_iec60870_link_addr_len, align 4
  %79 = add i32 1, %78
  %80 = load i32, ptr %18, align 4
  %81 = sub i32 %80, %79
  store i32 %81, ptr %18, align 4
  %82 = load ptr, ptr %13, align 8
  %83 = load i32, ptr @hf_iec60870_101_frame, align 4
  %84 = load ptr, ptr %6, align 8
  %85 = load i32, ptr %20, align 4
  %86 = add i32 %85, 2
  %87 = call ptr @proto_tree_add_item_ret_uint(ptr noundef %82, i32 noundef %83, ptr noundef %84, i32 noundef %86, i32 noundef 1, i32 noundef -2147483648, ptr noundef %16)
  store ptr %87, ptr %12, align 8
  %88 = load i32, ptr %16, align 4
  %89 = icmp ne i32 %88, 104
  br i1 %89, label %90, label %99

90:                                               ; preds = %77
  %91 = load ptr, ptr %7, align 8
  %92 = load ptr, ptr %12, align 8
  %93 = call ptr @expert_add_info(ptr noundef %91, ptr noundef %92, ptr noundef @ei_iec101_frame_mismatch)
  %94 = load ptr, ptr %7, align 8
  %95 = getelementptr inbounds nuw %struct._packet_info, ptr %94, i32 0, i32 1
  %96 = load ptr, ptr %95, align 8
  call void @col_set_str(ptr noundef %96, i32 noundef 25, ptr noundef @.str.839)
  %97 = load ptr, ptr %6, align 8
  %98 = call i32 @tvb_captured_length(ptr noundef %97)
  store i32 %98, ptr %5, align 4
  store i32 1, ptr %22, align 4
  br label %224

99:                                               ; preds = %77
  %100 = load i32, ptr %20, align 4
  %101 = add i32 %100, 3
  store i32 %101, ptr %20, align 4
  br label %102

102:                                              ; preds = %99, %47
  %103 = load ptr, ptr %13, align 8
  %104 = load i32, ptr @hf_iec60870_101_ctrlfield, align 4
  %105 = load ptr, ptr %6, align 8
  %106 = load i32, ptr %20, align 4
  %107 = call ptr @proto_tree_add_item(ptr noundef %103, i32 noundef %104, ptr noundef %105, i32 noundef %106, i32 noundef 1, i32 noundef -2147483648)
  store ptr %107, ptr %11, align 8
  %108 = load ptr, ptr %11, align 8
  %109 = load i32, ptr @ett_iec60870_101_ctrlfield, align 4
  %110 = call ptr @proto_item_add_subtree(ptr noundef %108, i32 noundef %109)
  store ptr %110, ptr %14, align 8
  %111 = load ptr, ptr %6, align 8
  %112 = load i32, ptr %20, align 4
  %113 = call zeroext i8 @tvb_get_uint8(ptr noundef %111, i32 noundef %112)
  %114 = zext i8 %113 to i32
  %115 = and i32 %114, 64
  %116 = trunc i32 %115 to i8
  store i8 %116, ptr %15, align 1
  %117 = load i8, ptr %15, align 1
  %118 = icmp ne i8 %117, 0
  br i1 %118, label %119, label %143

119:                                              ; preds = %102
  %120 = load ptr, ptr %7, align 8
  %121 = getelementptr inbounds nuw %struct._packet_info, ptr %120, i32 0, i32 1
  %122 = load ptr, ptr %121, align 8
  call void @col_append_sep_str(ptr noundef %122, i32 noundef 25, ptr noundef @.str.840, ptr noundef @.str.841)
  %123 = load ptr, ptr %14, align 8
  %124 = load i32, ptr @hf_iec60870_101_ctrl_prm, align 4
  %125 = load ptr, ptr %6, align 8
  %126 = load i32, ptr %20, align 4
  %127 = call ptr @proto_tree_add_item(ptr noundef %123, i32 noundef %124, ptr noundef %125, i32 noundef %126, i32 noundef 1, i32 noundef -2147483648)
  %128 = load ptr, ptr %14, align 8
  %129 = load i32, ptr @hf_iec60870_101_ctrl_fcb, align 4
  %130 = load ptr, ptr %6, align 8
  %131 = load i32, ptr %20, align 4
  %132 = call ptr @proto_tree_add_item(ptr noundef %128, i32 noundef %129, ptr noundef %130, i32 noundef %131, i32 noundef 1, i32 noundef -2147483648)
  %133 = load ptr, ptr %14, align 8
  %134 = load i32, ptr @hf_iec60870_101_ctrl_fcv, align 4
  %135 = load ptr, ptr %6, align 8
  %136 = load i32, ptr %20, align 4
  %137 = call ptr @proto_tree_add_item(ptr noundef %133, i32 noundef %134, ptr noundef %135, i32 noundef %136, i32 noundef 1, i32 noundef -2147483648)
  %138 = load ptr, ptr %14, align 8
  %139 = load i32, ptr @hf_iec60870_101_ctrl_func_pri_to_sec, align 4
  %140 = load ptr, ptr %6, align 8
  %141 = load i32, ptr %20, align 4
  %142 = call ptr @proto_tree_add_item(ptr noundef %138, i32 noundef %139, ptr noundef %140, i32 noundef %141, i32 noundef 1, i32 noundef -2147483648)
  br label %162

143:                                              ; preds = %102
  %144 = load ptr, ptr %7, align 8
  %145 = getelementptr inbounds nuw %struct._packet_info, ptr %144, i32 0, i32 1
  %146 = load ptr, ptr %145, align 8
  call void @col_append_sep_str(ptr noundef %146, i32 noundef 25, ptr noundef @.str.840, ptr noundef @.str.842)
  %147 = load ptr, ptr %14, align 8
  %148 = load i32, ptr @hf_iec60870_101_ctrl_prm, align 4
  %149 = load ptr, ptr %6, align 8
  %150 = load i32, ptr %20, align 4
  %151 = call ptr @proto_tree_add_item(ptr noundef %147, i32 noundef %148, ptr noundef %149, i32 noundef %150, i32 noundef 1, i32 noundef -2147483648)
  %152 = load ptr, ptr %14, align 8
  %153 = load i32, ptr @hf_iec60870_101_ctrl_dfc, align 4
  %154 = load ptr, ptr %6, align 8
  %155 = load i32, ptr %20, align 4
  %156 = call ptr @proto_tree_add_item(ptr noundef %152, i32 noundef %153, ptr noundef %154, i32 noundef %155, i32 noundef 1, i32 noundef -2147483648)
  %157 = load ptr, ptr %14, align 8
  %158 = load i32, ptr @hf_iec60870_101_ctrl_func_sec_to_pri, align 4
  %159 = load ptr, ptr %6, align 8
  %160 = load i32, ptr %20, align 4
  %161 = call ptr @proto_tree_add_item(ptr noundef %157, i32 noundef %158, ptr noundef %159, i32 noundef %160, i32 noundef 1, i32 noundef -2147483648)
  br label %162

162:                                              ; preds = %143, %119
  %163 = load i32, ptr %20, align 4
  %164 = add i32 %163, 1
  store i32 %164, ptr %20, align 4
  %165 = load i32, ptr @global_iec60870_link_addr_len, align 4
  %166 = icmp ne i32 %165, 0
  br i1 %166, label %167, label %181

167:                                              ; preds = %162
  %168 = load ptr, ptr %13, align 8
  %169 = load i32, ptr @hf_iec60870_101_linkaddr, align 4
  %170 = load ptr, ptr %6, align 8
  %171 = load i32, ptr %20, align 4
  %172 = load i32, ptr @global_iec60870_link_addr_len, align 4
  %173 = call ptr @proto_tree_add_item_ret_uint(ptr noundef %168, i32 noundef %169, ptr noundef %170, i32 noundef %171, i32 noundef %172, i32 noundef -2147483648, ptr noundef %17)
  %174 = load ptr, ptr %7, align 8
  %175 = getelementptr inbounds nuw %struct._packet_info, ptr %174, i32 0, i32 1
  %176 = load ptr, ptr %175, align 8
  %177 = load i32, ptr %17, align 4
  call void (ptr, i32, ptr, ptr, ...) @col_append_sep_fstr(ptr noundef %176, i32 noundef 25, ptr noundef null, ptr noundef @.str.843, i32 noundef %177)
  %178 = load i32, ptr @global_iec60870_link_addr_len, align 4
  %179 = load i32, ptr %20, align 4
  %180 = add i32 %179, %178
  store i32 %180, ptr %20, align 4
  br label %181

181:                                              ; preds = %167, %162
  %182 = load i32, ptr %16, align 4
  %183 = icmp eq i32 %182, 104
  br i1 %183, label %184, label %202

184:                                              ; preds = %181
  %185 = load i32, ptr @global_iec60870_cot_len, align 4
  %186 = getelementptr inbounds nuw %struct.asdu_parms, ptr %21, i32 0, i32 0
  store i32 %185, ptr %186, align 4
  %187 = load i32, ptr @global_iec60870_asdu_addr_len, align 4
  %188 = getelementptr inbounds nuw %struct.asdu_parms, ptr %21, i32 0, i32 1
  store i32 %187, ptr %188, align 4
  %189 = load i32, ptr @global_iec60870_ioa_len, align 4
  %190 = getelementptr inbounds nuw %struct.asdu_parms, ptr %21, i32 0, i32 2
  store i32 %189, ptr %190, align 4
  %191 = load ptr, ptr @iec60870_asdu_handle, align 8
  %192 = load ptr, ptr %6, align 8
  %193 = load i32, ptr %20, align 4
  %194 = load i32, ptr %18, align 4
  %195 = call ptr @tvb_new_subset_length_caplen(ptr noundef %192, i32 noundef %193, i32 noundef -1, i32 noundef %194)
  %196 = load ptr, ptr %7, align 8
  %197 = load ptr, ptr %8, align 8
  %198 = call i32 @call_dissector_with_data(ptr noundef %191, ptr noundef %195, ptr noundef %196, ptr noundef %197, ptr noundef %21)
  %199 = load i32, ptr %18, align 4
  %200 = load i32, ptr %20, align 4
  %201 = add i32 %200, %199
  store i32 %201, ptr %20, align 4
  br label %202

202:                                              ; preds = %184, %181
  %203 = load ptr, ptr %13, align 8
  %204 = load i32, ptr @hf_iec60870_101_checksum, align 4
  %205 = load ptr, ptr %6, align 8
  %206 = load i32, ptr %20, align 4
  %207 = call ptr @proto_tree_add_item(ptr noundef %203, i32 noundef %204, ptr noundef %205, i32 noundef %206, i32 noundef 1, i32 noundef -2147483648)
  %208 = load ptr, ptr %13, align 8
  %209 = load i32, ptr @hf_iec60870_101_stopchar, align 4
  %210 = load ptr, ptr %6, align 8
  %211 = load i32, ptr %20, align 4
  %212 = add i32 %211, 1
  %213 = call ptr @proto_tree_add_item_ret_uint(ptr noundef %208, i32 noundef %209, ptr noundef %210, i32 noundef %212, i32 noundef 1, i32 noundef -2147483648, ptr noundef %19)
  store ptr %213, ptr %12, align 8
  %214 = load i32, ptr %19, align 4
  %215 = icmp ne i32 %214, 22
  br i1 %215, label %216, label %220

216:                                              ; preds = %202
  %217 = load ptr, ptr %7, align 8
  %218 = load ptr, ptr %12, align 8
  %219 = call ptr @expert_add_info(ptr noundef %217, ptr noundef %218, ptr noundef @ei_iec101_stopchar_invalid)
  br label %220

220:                                              ; preds = %216, %202
  %221 = load i32, ptr %20, align 4
  %222 = add i32 %221, 2
  store i32 %222, ptr %20, align 4
  %223 = load i32, ptr %20, align 4
  store i32 %223, ptr %5, align 4
  store i32 1, ptr %22, align 4
  br label %224

224:                                              ; preds = %220, %90, %68, %45
  call void @llvm.lifetime.end.p0(i64 12, ptr %21) #8
  call void @llvm.lifetime.end.p0(i64 4, ptr %20) #8
  call void @llvm.lifetime.end.p0(i64 4, ptr %19) #8
  call void @llvm.lifetime.end.p0(i64 4, ptr %18) #8
  call void @llvm.lifetime.end.p0(i64 4, ptr %17) #8
  call void @llvm.lifetime.end.p0(i64 4, ptr %16) #8
  call void @llvm.lifetime.end.p0(i64 1, ptr %15) #8
  call void @llvm.lifetime.end.p0(i64 8, ptr %14) #8
  call void @llvm.lifetime.end.p0(i64 8, ptr %13) #8
  call void @llvm.lifetime.end.p0(i64 8, ptr %12) #8
  call void @llvm.lifetime.end.p0(i64 8, ptr %11) #8
  call void @llvm.lifetime.end.p0(i64 8, ptr %10) #8
  %225 = load i32, ptr %5, align 4
  ret i32 %225
}