; Function Attrs: null_pointer_is_valid sspstrong uwtable
define internal i32 @dissect_iec60870_101(ptr noundef %0, ptr noundef %1, ptr noundef %2, ptr readnone captures(none) %3) #0 {
  %5 = alloca i32, align 4
  %6 = alloca i32, align 4
  %7 = alloca i32, align 4
  %8 = alloca i32, align 4
  %9 = alloca %struct.asdu_parms, align 4
  call void @llvm.lifetime.start.p0(i64 4, ptr nonnull %5) #7
  call void @llvm.lifetime.start.p0(i64 4, ptr nonnull %6) #7
  call void @llvm.lifetime.start.p0(i64 4, ptr nonnull %7) #7
  call void @llvm.lifetime.start.p0(i64 4, ptr nonnull %8) #7
  call void @llvm.lifetime.start.p0(i64 12, ptr nonnull %9) #7
  %10 = getelementptr inbounds nuw i8, ptr %1, i64 8
  %11 = load ptr, ptr %10, align 8
  tail call void @col_set_str(ptr noundef %11, i32 noundef 35, ptr noundef nonnull @.str.365)
  %12 = load ptr, ptr %10, align 8
  tail call void @col_clear(ptr noundef %12, i32 noundef 25)
  %13 = load i32, ptr @proto_iec60870_101, align 4
  %14 = tail call ptr @proto_tree_add_item(ptr noundef %2, i32 noundef %13, ptr noundef %0, i32 noundef 0, i32 noundef -1, i32 noundef 0)
  %15 = load i32, ptr @ett_iec60870_101, align 4
  %16 = tail call ptr @proto_item_add_subtree(ptr noundef %14, i32 noundef %15)
  %17 = load i32, ptr @hf_iec60870_101_frame, align 4
  %18 = call ptr @proto_tree_add_item_ret_uint(ptr noundef %16, i32 noundef %17, ptr noundef %0, i32 noundef 0, i32 noundef 1, i32 noundef -2147483648, ptr noundef nonnull %5)
  %19 = load i32, ptr %5, align 4
  switch i32 %19, label %43 [
    i32 229, label %97
    i32 104, label %20
  ]

20:                                               ; preds = %4
  %21 = load i32, ptr @hf_iec60870_101_length, align 4
  %22 = call ptr @proto_tree_add_item(ptr noundef %16, i32 noundef %21, ptr noundef %0, i32 noundef 1, i32 noundef 1, i32 noundef -2147483648)
  %23 = load i32, ptr @hf_iec60870_101_num_user_octets, align 4
  %24 = call ptr @proto_tree_add_item_ret_uint(ptr noundef %16, i32 noundef %23, ptr noundef %0, i32 noundef 2, i32 noundef 1, i32 noundef -2147483648, ptr noundef nonnull %7)
  %25 = load i32, ptr %7, align 4
  %26 = call zeroext i8 @tvb_get_uint8(ptr noundef %0, i32 noundef 1)
  %27 = zext i8 %26 to i32
  %.not = icmp eq i32 %25, %27
  br i1 %.not, label %32, label %28

28:                                               ; preds = %20
  %29 = call ptr @expert_add_info(ptr noundef %1, ptr noundef %24, ptr noundef nonnull @ei_iec101_length_mismatch)
  %30 = load ptr, ptr %10, align 8
  call void @col_set_str(ptr noundef %30, i32 noundef 25, ptr noundef nonnull @.str.839)
  %31 = call i32 @tvb_captured_length(ptr noundef %0)
  br label %97

32:                                               ; preds = %20
  %33 = load i32, ptr @global_iec60870_link_addr_len, align 4
  %.neg = xor i32 %33, -1
  %34 = load i32, ptr %7, align 4
  %35 = add i32 %34, %.neg
  store i32 %35, ptr %7, align 4
  %36 = load i32, ptr @hf_iec60870_101_frame, align 4
  %37 = call ptr @proto_tree_add_item_ret_uint(ptr noundef %16, i32 noundef %36, ptr noundef %0, i32 noundef 3, i32 noundef 1, i32 noundef -2147483648, ptr noundef nonnull %5)
  %38 = load i32, ptr %5, align 4
  %.not84 = icmp eq i32 %38, 104
  br i1 %.not84, label %43, label %39

39:                                               ; preds = %32
  %40 = call ptr @expert_add_info(ptr noundef %1, ptr noundef %37, ptr noundef nonnull @ei_iec101_frame_mismatch)
  %41 = load ptr, ptr %10, align 8
  call void @col_set_str(ptr noundef %41, i32 noundef 25, ptr noundef nonnull @.str.839)
  %42 = call i32 @tvb_captured_length(ptr noundef %0)
  br label %97

43:                                               ; preds = %32, %4
  %.0 = phi i32 [ 1, %4 ], [ 4, %32 ]
  %44 = load i32, ptr @hf_iec60870_101_ctrlfield, align 4
  %45 = call ptr @proto_tree_add_item(ptr noundef %16, i32 noundef %44, ptr noundef %0, i32 noundef %.0, i32 noundef 1, i32 noundef -2147483648)
  %46 = load i32, ptr @ett_iec60870_101_ctrlfield, align 4
  %47 = call ptr @proto_item_add_subtree(ptr noundef %45, i32 noundef %46)
  %48 = call zeroext i8 @tvb_get_uint8(ptr noundef %0, i32 noundef %.0)
  %49 = and i8 %48, 64
  %.not85 = icmp eq i8 %49, 0
  %50 = load ptr, ptr %10, align 8
  br i1 %.not85, label %54, label %51

51:                                               ; preds = %43
  call void @col_append_sep_str(ptr noundef %50, i32 noundef 25, ptr noundef nonnull @.str.840, ptr noundef nonnull @.str.841)
  %52 = load i32, ptr @hf_iec60870_101_ctrl_prm, align 4
  %53 = call ptr @proto_tree_add_item(ptr noundef %47, i32 noundef %52, ptr noundef %0, i32 noundef %.0, i32 noundef 1, i32 noundef -2147483648)
  br label %55

54:                                               ; preds = %43
  call void @col_append_sep_str(ptr noundef %50, i32 noundef 25, ptr noundef nonnull @.str.840, ptr noundef nonnull @.str.842)
  br label %55

55:                                               ; preds = %54, %51
  %hf_iec60870_101_ctrl_prm.sink = phi ptr [ @hf_iec60870_101_ctrl_prm, %54 ], [ @hf_iec60870_101_ctrl_fcb, %51 ]
  %hf_iec60870_101_ctrl_dfc.sink = phi ptr [ @hf_iec60870_101_ctrl_dfc, %54 ], [ @hf_iec60870_101_ctrl_fcv, %51 ]
  %hf_iec60870_101_ctrl_func_sec_to_pri.sink = phi ptr [ @hf_iec60870_101_ctrl_func_sec_to_pri, %54 ], [ @hf_iec60870_101_ctrl_func_pri_to_sec, %51 ]
  %56 = load i32, ptr %hf_iec60870_101_ctrl_prm.sink, align 4
  %57 = call ptr @proto_tree_add_item(ptr noundef %47, i32 noundef %56, ptr noundef %0, i32 noundef %.0, i32 noundef 1, i32 noundef -2147483648)
  %58 = load i32, ptr %hf_iec60870_101_ctrl_dfc.sink, align 4
  %59 = call ptr @proto_tree_add_item(ptr noundef %47, i32 noundef %58, ptr noundef %0, i32 noundef %.0, i32 noundef 1, i32 noundef -2147483648)
  %60 = load i32, ptr %hf_iec60870_101_ctrl_func_sec_to_pri.sink, align 4
  %61 = call ptr @proto_tree_add_item(ptr noundef %47, i32 noundef %60, ptr noundef %0, i32 noundef %.0, i32 noundef 1, i32 noundef -2147483648)
  %62 = add nuw nsw i32 %.0, 1
  %63 = load i32, ptr @global_iec60870_link_addr_len, align 4
  %.not86 = icmp eq i32 %63, 0
  br i1 %.not86, label %71, label %64

64:                                               ; preds = %55
  %65 = load i32, ptr @hf_iec60870_101_linkaddr, align 4
  %66 = call ptr @proto_tree_add_item_ret_uint(ptr noundef %16, i32 noundef %65, ptr noundef %0, i32 noundef %62, i32 noundef %63, i32 noundef -2147483648, ptr noundef nonnull %6)
  %67 = load ptr, ptr %10, align 8
  %68 = load i32, ptr %6, align 4
  call void (ptr, i32, ptr, ptr, ...) @col_append_sep_fstr(ptr noundef %67, i32 noundef 25, ptr noundef null, ptr noundef nonnull @.str.843, i32 noundef %68)
  %69 = load i32, ptr @global_iec60870_link_addr_len, align 4
  %70 = add i32 %69, %62
  br label %71

71:                                               ; preds = %64, %55
  %.1 = phi i32 [ %70, %64 ], [ %62, %55 ]
  %72 = load i32, ptr %5, align 4
  %73 = icmp eq i32 %72, 104
  br i1 %73, label %74, label %86

74:                                               ; preds = %71
  %75 = load i32, ptr @global_iec60870_cot_len, align 4
  store i32 %75, ptr %9, align 4
  %76 = load i32, ptr @global_iec60870_asdu_addr_len, align 4
  %77 = getelementptr inbounds nuw i8, ptr %9, i64 4
  store i32 %76, ptr %77, align 4
  %78 = load i32, ptr @global_iec60870_ioa_len, align 4
  %79 = getelementptr inbounds nuw i8, ptr %9, i64 8
  store i32 %78, ptr %79, align 4
  %80 = load ptr, ptr @iec60870_asdu_handle, align 8
  %81 = load i32, ptr %7, align 4
  %82 = call ptr @tvb_new_subset_length_caplen(ptr noundef %0, i32 noundef %.1, i32 noundef -1, i32 noundef %81)
  %83 = call i32 @call_dissector_with_data(ptr noundef %80, ptr noundef %82, ptr noundef %1, ptr noundef %2, ptr noundef nonnull %9)
  %84 = load i32, ptr %7, align 4
  %85 = add i32 %84, %.1
  br label %86

86:                                               ; preds = %74, %71
  %.2 = phi i32 [ %85, %74 ], [ %.1, %71 ]
  %87 = load i32, ptr @hf_iec60870_101_checksum, align 4
  %88 = call ptr @proto_tree_add_item(ptr noundef %16, i32 noundef %87, ptr noundef %0, i32 noundef %.2, i32 noundef 1, i32 noundef -2147483648)
  %89 = load i32, ptr @hf_iec60870_101_stopchar, align 4
  %90 = add i32 %.2, 1
  %91 = call ptr @proto_tree_add_item_ret_uint(ptr noundef %16, i32 noundef %89, ptr noundef %0, i32 noundef %90, i32 noundef 1, i32 noundef -2147483648, ptr noundef nonnull %8)
  %92 = load i32, ptr %8, align 4
  %.not87 = icmp eq i32 %92, 22
  br i1 %.not87, label %95, label %93

93:                                               ; preds = %86
  %94 = call ptr @expert_add_info(ptr noundef %1, ptr noundef %91, ptr noundef nonnull @ei_iec101_stopchar_invalid)
  br label %95

95:                                               ; preds = %93, %86
  %96 = add i32 %.2, 2
  br label %97

97:                                               ; preds = %4, %95, %39, %28
  %.081 = phi i32 [ %31, %28 ], [ %42, %39 ], [ %96, %95 ], [ 1, %4 ]
  call void @llvm.lifetime.end.p0(i64 12, ptr nonnull %9) #7
  call void @llvm.lifetime.end.p0(i64 4, ptr nonnull %8) #7
  call void @llvm.lifetime.end.p0(i64 4, ptr nonnull %7) #7
  call void @llvm.lifetime.end.p0(i64 4, ptr nonnull %6) #7
  call void @llvm.lifetime.end.p0(i64 4, ptr nonnull %5) #7
  ret i32 %.081
}